target datalayout = "e-m:e-p270:32:32-p271:32:32-p272:64:64-i64:64-i128:128-f80:128-n8:16:32:64-S128"
target triple = "x86_64-pc-linux-gnu"

%struct.prte_process_info_t = type { %struct.pmix_proc, %struct.pmix_proc, ptr, %struct.pmix_proc, i32, i32, i32, ptr, ptr, i32, i8, ptr, i16, ptr, ptr, i8, ptr, i8 }
%struct.pmix_proc = type { [256 x i8], i32 }

@prte_hwloc_base_report_bind_failure.already_reported = internal global i32 0, align 4
@prte_hwloc_base_mbfa = external global i32, align 4
@.str.15 = private unnamed_addr constant [25 x i8] c"help-prte-hwloc-base.txt\00", align 1
@.str.16 = private unnamed_addr constant [14 x i8] c"mbind failure\00", align 1
@prte_process_info = external global %struct.prte_process_info_t, align 8
@.str.17 = private unnamed_addr constant [74 x i8] c"Warning -- your job will continue, but possibly with degraded performance\00", align 1
@.str.18 = private unnamed_addr constant [48 x i8] c"ERROR -- your job may abort or behave erraticly\00", align 1

; Function Attrs: nounwind uwtable
define i32 @prte_hwloc_base_report_bind_failure(ptr noundef %0, i32 noundef %1, ptr noundef %2, i32 noundef %3) #0 {
  %5 = alloca i32, align 4
  %6 = alloca ptr, align 8
  %7 = alloca i32, align 4
  %8 = alloca ptr, align 8
  %9 = alloca i32, align 4
  store ptr %0, ptr %6, align 8, !tbaa !26
  store i32 %1, ptr %7, align 4, !tbaa !19
  store ptr %2, ptr %8, align 8, !tbaa !26
  store i32 %3, ptr %9, align 4, !tbaa !19
  %10 = load i32, ptr @prte_hwloc_base_report_bind_failure.already_reported, align 4, !tbaa !19
  %11 = icmp ne i32 %10, 0
  br i1 %11, label %26, label %12

12:                                               ; preds = %4
  %13 = load i32, ptr @prte_hwloc_base_mbfa, align 4, !tbaa !19
  %14 = icmp ne i32 0, %13
  br i1 %14, label %15, label %26

15:                                               ; preds = %12
  %16 = load ptr, ptr getelementptr inbounds nuw (%struct.prte_process_info_t, ptr @prte_process_info, i32 0, i32 7), align 8, !tbaa !91
  %17 = call i32 @getpid() #10
  %18 = load ptr, ptr %6, align 8, !tbaa !26
  %19 = load i32, ptr %7, align 4, !tbaa !19
  %20 = load ptr, ptr %8, align 8, !tbaa !26
  %21 = load i32, ptr @prte_hwloc_base_mbfa, align 4, !tbaa !19
  %22 = icmp eq i32 1, %21
  %23 = select i1 %22, ptr @.str.17, ptr @.str.18
  %24 = call i32 (ptr, ptr, i32, ...) @pmix_show_help(ptr noundef @.str.15, ptr noundef @.str.16, i32 noundef 1, ptr noundef %16, i32 noundef %17, ptr noundef %18, i32 noundef %19, ptr noundef %20, ptr noundef %23)
  store i32 1, ptr @prte_hwloc_base_report_bind_failure.already_reported, align 4, !tbaa !19
  %25 = load i32, ptr %9, align 4, !tbaa !19
  store i32 %25, ptr %5, align 4
  br label %27

26:                                               ; preds = %12, %4
  store i32 0, ptr %5, align 4
  br label %27

27:                                               ; preds = %26, %15
  %28 = load i32, ptr %5, align 4
  ret i32 %28
}