; Function Attrs: nounwind uwtable
define noundef i32 @prte_hwloc_base_report_bind_failure(ptr noundef %0, i32 noundef %1, ptr noundef %2, i32 noundef %3) local_unnamed_addr #0 {
  %.b = load i1, ptr @prte_hwloc_base_report_bind_failure.already_reported, align 4
  %5 = load i32, ptr @prte_hwloc_base_mbfa, align 4
  %6 = icmp eq i32 %5, 0
  %or.cond.not = select i1 %.b, i1 true, i1 %6
  br i1 %or.cond.not, label %14, label %7

7:                                                ; preds = %4
  %8 = load ptr, ptr getelementptr inbounds nuw (i8, ptr @prte_process_info, i64 800), align 8, !tbaa !74
  %9 = tail call i32 @getpid() #18
  %10 = load i32, ptr @prte_hwloc_base_mbfa, align 4, !tbaa !16
  %11 = icmp eq i32 %10, 1
  %12 = select i1 %11, ptr @.str.17, ptr @.str.18
  %13 = tail call i32 (ptr, ptr, i32, ...) @pmix_show_help(ptr noundef nonnull @.str.15, ptr noundef nonnull @.str.16, i32 noundef 1, ptr noundef %8, i32 noundef %9, ptr noundef %0, i32 noundef %1, ptr noundef %2, ptr noundef nonnull %12) #18
  store i1 true, ptr @prte_hwloc_base_report_bind_failure.already_reported, align 4
  br label %14

14:                                               ; preds = %4, %7
  %.0 = phi i32 [ %3, %7 ], [ 0, %4 ]
  ret i32 %.0
}